; Function Attrs: inlinehint mustprogress nounwind uwtable
define internal fastcc void @_ZNSt4pairIKNSt7__cxx1112basic_stringIcSt11char_traitsIcESaIcEEEZN6Assimp3MDL8HalfLife19UniqueNameGenerator11make_uniqueERSt6vectorIS5_SaIS5_EEE13DuplicateInfoED2Ev(ptr noundef nonnull readonly align 8 captures(address) dereferenceable(64) %0) unnamed_addr #5 align 2 personality ptr @__gxx_personality_v0 {
  %2 = getelementptr inbounds nuw i8, ptr %0, i64 32
  %3 = load ptr, ptr %2, align 8
  %.not8.i.i.i = icmp eq ptr %3, %2
  br i1 %.not8.i.i.i, label %_ZZN6Assimp3MDL8HalfLife19UniqueNameGenerator11make_uniqueERSt6vectorINSt7__cxx1112basic_stringIcSt11char_traitsIcESaIcEEESaIS9_EEEN13DuplicateInfoD2Ev.exit, label %.lr.ph.i.i.i

.lr.ph.i.i.i:                                     ; preds = %1, %.lr.ph.i.i.i
  %.09.i.i.i = phi ptr [ %4, %.lr.ph.i.i.i ], [ %3, %1 ]
  %4 = load ptr, ptr %.09.i.i.i, align 8
  tail call void @_ZdlPvm(ptr noundef nonnull %.09.i.i.i, i64 noundef 24) #24
  %.not.i.i.i = icmp eq ptr %4, %2
  br i1 %.not.i.i.i, label %_ZZN6Assimp3MDL8HalfLife19UniqueNameGenerator11make_uniqueERSt6vectorINSt7__cxx1112basic_stringIcSt11char_traitsIcESaIcEEESaIS9_EEEN13DuplicateInfoD2Ev.exit, label %.lr.ph.i.i.i, !llvm.loop !8

_ZZN6Assimp3MDL8HalfLife19UniqueNameGenerator11make_uniqueERSt6vectorINSt7__cxx1112basic_stringIcSt11char_traitsIcESaIcEEESaIS9_EEEN13DuplicateInfoD2Ev.exit: ; preds = %.lr.ph.i.i.i, %1
  %5 = load ptr, ptr %0, align 8
  %6 = getelementptr inbounds nuw i8, ptr %0, i64 16
  %7 = icmp eq ptr %5, %6
  br i1 %7, label %_ZNKSt7__cxx1112basic_stringIcSt11char_traitsIcESaIcEE11_M_is_localEv.exit.thread.i.i, label %_ZNKSt7__cxx1112basic_stringIcSt11char_traitsIcESaIcEE11_M_is_localEv.exit.i.i

_ZNKSt7__cxx1112basic_stringIcSt11char_traitsIcESaIcEE11_M_is_localEv.exit.thread.i.i: ; preds = %_ZZN6Assimp3MDL8HalfLife19UniqueNameGenerator11make_uniqueERSt6vectorINSt7__cxx1112basic_stringIcSt11char_traitsIcESaIcEEESaIS9_EEEN13DuplicateInfoD2Ev.exit
  %8 = getelementptr inbounds nuw i8, ptr %0, i64 8
  %9 = load i64, ptr %8, align 8
  %10 = icmp ult i64 %9, 16
  tail call void @llvm.assume(i1 %10)
  br label %_ZNSt7__cxx1112basic_stringIcSt11char_traitsIcESaIcEED2Ev.exit

_ZNKSt7__cxx1112basic_stringIcSt11char_traitsIcESaIcEE11_M_is_localEv.exit.i.i: ; preds = %_ZZN6Assimp3MDL8HalfLife19UniqueNameGenerator11make_uniqueERSt6vectorINSt7__cxx1112basic_stringIcSt11char_traitsIcESaIcEEESaIS9_EEEN13DuplicateInfoD2Ev.exit
  %11 = load i64, ptr %6, align 8
  %12 = add i64 %11, 1
  tail call void @_ZdlPvm(ptr noundef %5, i64 noundef %12) #24
  br label %_ZNSt7__cxx1112basic_stringIcSt11char_traitsIcESaIcEED2Ev.exit

_ZNSt7__cxx1112basic_stringIcSt11char_traitsIcESaIcEED2Ev.exit: ; preds = %_ZNKSt7__cxx1112basic_stringIcSt11char_traitsIcESaIcEE11_M_is_localEv.exit.thread.i.i, %_ZNKSt7__cxx1112basic_stringIcSt11char_traitsIcESaIcEE11_M_is_localEv.exit.i.i
  ret void
}